target datalayout = "e-m:e-p270:32:32-p271:32:32-p272:64:64-i64:64-i128:128-f80:128-n8:16:32:64-S128"
target triple = "x86_64-pc-linux-gnu"

; Function Attrs: nounwind uwtable
define internal i64 @FSE_writeNCount_generic(ptr noundef %0, i64 noundef %1, ptr noundef %2, i32 noundef %3, i32 noundef %4, i32 noundef %5) #0 {
  %7 = alloca i64, align 8
  %8 = alloca ptr, align 8
  %9 = alloca i64, align 8
  %10 = alloca ptr, align 8
  %11 = alloca i32, align 4
  %12 = alloca i32, align 4
  %13 = alloca i32, align 4
  %14 = alloca ptr, align 8
  %15 = alloca ptr, align 8
  %16 = alloca ptr, align 8
  %17 = alloca i32, align 4
  %18 = alloca i32, align 4
  %19 = alloca i32, align 4
  %20 = alloca i32, align 4
  %21 = alloca i32, align 4
  %22 = alloca i32, align 4
  %23 = alloca i32, align 4
  %24 = alloca i32, align 4
  %25 = alloca i32, align 4
  %26 = alloca i32, align 4
  %27 = alloca i32, align 4
  %28 = alloca i32, align 4
  store ptr %0, ptr %8, align 8
  store i64 %1, ptr %9, align 8
  store ptr %2, ptr %10, align 8
  store i32 %3, ptr %11, align 4
  store i32 %4, ptr %12, align 4
  store i32 %5, ptr %13, align 4
  %29 = load ptr, ptr %8, align 8
  store ptr %29, ptr %14, align 8
  %30 = load ptr, ptr %14, align 8
  store ptr %30, ptr %15, align 8
  %31 = load ptr, ptr %14, align 8
  %32 = load i64, ptr %9, align 8
  %33 = getelementptr inbounds i8, ptr %31, i64 %32
  store ptr %33, ptr %16, align 8
  %34 = load i32, ptr %12, align 4
  %35 = shl i32 1, %34
  store i32 %35, ptr %18, align 4
  store i32 0, ptr %21, align 4
  store i32 0, ptr %22, align 4
  store i32 0, ptr %23, align 4
  %36 = load i32, ptr %11, align 4
  %37 = add i32 %36, 1
  store i32 %37, ptr %24, align 4
  store i32 0, ptr %25, align 4
  %38 = load i32, ptr %12, align 4
  %39 = sub i32 %38, 5
  %40 = load i32, ptr %22, align 4
  %41 = shl i32 %39, %40
  %42 = load i32, ptr %21, align 4
  %43 = add i32 %42, %41
  store i32 %43, ptr %21, align 4
  %44 = load i32, ptr %22, align 4
  %45 = add nsw i32 %44, 4
  store i32 %45, ptr %22, align 4
  %46 = load i32, ptr %18, align 4
  %47 = add nsw i32 %46, 1
  store i32 %47, ptr %19, align 4
  %48 = load i32, ptr %18, align 4
  store i32 %48, ptr %20, align 4
  %49 = load i32, ptr %12, align 4
  %50 = add i32 %49, 1
  store i32 %50, ptr %17, align 4
  br label %51

51:                                               ; preds = %267, %6
  %52 = load i32, ptr %23, align 4
  %53 = load i32, ptr %24, align 4
  %54 = icmp ult i32 %52, %53
  br i1 %54, label %55, label %58

55:                                               ; preds = %51
  %56 = load i32, ptr %19, align 4
  %57 = icmp sgt i32 %56, 1
  br label %58

58:                                               ; preds = %55, %51
  %59 = phi i1 [ false, %51 ], [ %57, %55 ]
  br i1 %59, label %60, label %268

60:                                               ; preds = %58
  %61 = load i32, ptr %25, align 4
  %62 = icmp ne i32 %61, 0
  br i1 %62, label %63, label %175

63:                                               ; preds = %60
  %64 = load i32, ptr %23, align 4
  store i32 %64, ptr %26, align 4
  br label %65

65:                                               ; preds = %79, %63
  %66 = load i32, ptr %23, align 4
  %67 = load i32, ptr %24, align 4
  %68 = icmp ult i32 %66, %67
  br i1 %68, label %69, label %77

69:                                               ; preds = %65
  %70 = load ptr, ptr %10, align 8
  %71 = load i32, ptr %23, align 4
  %72 = zext i32 %71 to i64
  %73 = getelementptr inbounds i16, ptr %70, i64 %72
  %74 = load i16, ptr %73, align 2
  %75 = icmp ne i16 %74, 0
  %76 = xor i1 %75, true
  br label %77

77:                                               ; preds = %69, %65
  %78 = phi i1 [ false, %65 ], [ %76, %69 ]
  br i1 %78, label %79, label %82

79:                                               ; preds = %77
  %80 = load i32, ptr %23, align 4
  %81 = add i32 %80, 1
  store i32 %81, ptr %23, align 4
  br label %65, !llvm.loop !16

82:                                               ; preds = %77
  %83 = load i32, ptr %23, align 4
  %84 = load i32, ptr %24, align 4
  %85 = icmp eq i32 %83, %84
  br i1 %85, label %86, label %87

86:                                               ; preds = %82
  br label %268

87:                                               ; preds = %82
  br label %88

88:                                               ; preds = %108, %87
  %89 = load i32, ptr %23, align 4
  %90 = load i32, ptr %26, align 4
  %91 = add i32 %90, 24
  %92 = icmp uge i32 %89, %91
  br i1 %92, label %93, label %122

93:                                               ; preds = %88
  %94 = load i32, ptr %26, align 4
  %95 = add i32 %94, 24
  store i32 %95, ptr %26, align 4
  %96 = load i32, ptr %22, align 4
  %97 = shl i32 65535, %96
  %98 = load i32, ptr %21, align 4
  %99 = add i32 %98, %97
  store i32 %99, ptr %21, align 4
  %100 = load i32, ptr %13, align 4
  %101 = icmp ne i32 %100, 0
  br i1 %101, label %108, label %102

102:                                              ; preds = %93
  %103 = load ptr, ptr %15, align 8
  %104 = load ptr, ptr %16, align 8
  %105 = getelementptr inbounds i8, ptr %104, i64 -2
  %106 = icmp ugt ptr %103, %105
  br i1 %106, label %107, label %108

107:                                              ; preds = %102
  store i64 -70, ptr %7, align 8
  br label %302

108:                                              ; preds = %102, %93
  %109 = load i32, ptr %21, align 4
  %110 = trunc i32 %109 to i8
  %111 = load ptr, ptr %15, align 8
  %112 = getelementptr inbounds i8, ptr %111, i64 0
  store i8 %110, ptr %112, align 1
  %113 = load i32, ptr %21, align 4
  %114 = lshr i32 %113, 8
  %115 = trunc i32 %114 to i8
  %116 = load ptr, ptr %15, align 8
  %117 = getelementptr inbounds i8, ptr %116, i64 1
  store i8 %115, ptr %117, align 1
  %118 = load ptr, ptr %15, align 8
  %119 = getelementptr inbounds i8, ptr %118, i64 2
  store ptr %119, ptr %15, align 8
  %120 = load i32, ptr %21, align 4
  %121 = lshr i32 %120, 16
  store i32 %121, ptr %21, align 4
  br label %88, !llvm.loop !17

122:                                              ; preds = %88
  br label %123

123:                                              ; preds = %128, %122
  %124 = load i32, ptr %23, align 4
  %125 = load i32, ptr %26, align 4
  %126 = add i32 %125, 3
  %127 = icmp uge i32 %124, %126
  br i1 %127, label %128, label %137

128:                                              ; preds = %123
  %129 = load i32, ptr %26, align 4
  %130 = add i32 %129, 3
  store i32 %130, ptr %26, align 4
  %131 = load i32, ptr %22, align 4
  %132 = shl i32 3, %131
  %133 = load i32, ptr %21, align 4
  %134 = add i32 %133, %132
  store i32 %134, ptr %21, align 4
  %135 = load i32, ptr %22, align 4
  %136 = add nsw i32 %135, 2
  store i32 %136, ptr %22, align 4
  br label %123, !llvm.loop !18

137:                                              ; preds = %123
  %138 = load i32, ptr %23, align 4
  %139 = load i32, ptr %26, align 4
  %140 = sub i32 %138, %139
  %141 = load i32, ptr %22, align 4
  %142 = shl i32 %140, %141
  %143 = load i32, ptr %21, align 4
  %144 = add i32 %143, %142
  store i32 %144, ptr %21, align 4
  %145 = load i32, ptr %22, align 4
  %146 = add nsw i32 %145, 2
  store i32 %146, ptr %22, align 4
  %147 = load i32, ptr %22, align 4
  %148 = icmp sgt i32 %147, 16
  br i1 %148, label %149, label %174

149:                                              ; preds = %137
  %150 = load i32, ptr %13, align 4
  %151 = icmp ne i32 %150, 0
  br i1 %151, label %158, label %152

152:                                              ; preds = %149
  %153 = load ptr, ptr %15, align 8
  %154 = load ptr, ptr %16, align 8
  %155 = getelementptr inbounds i8, ptr %154, i64 -2
  %156 = icmp ugt ptr %153, %155
  br i1 %156, label %157, label %158

157:                                              ; preds = %152
  store i64 -70, ptr %7, align 8
  br label %302

158:                                              ; preds = %152, %149
  %159 = load i32, ptr %21, align 4
  %160 = trunc i32 %159 to i8
  %161 = load ptr, ptr %15, align 8
  %162 = getelementptr inbounds i8, ptr %161, i64 0
  store i8 %160, ptr %162, align 1
  %163 = load i32, ptr %21, align 4
  %164 = lshr i32 %163, 8
  %165 = trunc i32 %164 to i8
  %166 = load ptr, ptr %15, align 8
  %167 = getelementptr inbounds i8, ptr %166, i64 1
  store i8 %165, ptr %167, align 1
  %168 = load ptr, ptr %15, align 8
  %169 = getelementptr inbounds i8, ptr %168, i64 2
  store ptr %169, ptr %15, align 8
  %170 = load i32, ptr %21, align 4
  %171 = lshr i32 %170, 16
  store i32 %171, ptr %21, align 4
  %172 = load i32, ptr %22, align 4
  %173 = sub nsw i32 %172, 16
  store i32 %173, ptr %22, align 4
  br label %174

174:                                              ; preds = %158, %137
  br label %175

175:                                              ; preds = %174, %60
  %176 = load ptr, ptr %10, align 8
  %177 = load i32, ptr %23, align 4
  %178 = add i32 %177, 1
  store i32 %178, ptr %23, align 4
  %179 = zext i32 %177 to i64
  %180 = getelementptr inbounds i16, ptr %176, i64 %179
  %181 = load i16, ptr %180, align 2
  %182 = sext i16 %181 to i32
  store i32 %182, ptr %27, align 4
  %183 = load i32, ptr %20, align 4
  %184 = mul nsw i32 2, %183
  %185 = sub nsw i32 %184, 1
  %186 = load i32, ptr %19, align 4
  %187 = sub nsw i32 %185, %186
  store i32 %187, ptr %28, align 4
  %188 = load i32, ptr %27, align 4
  %189 = icmp slt i32 %188, 0
  br i1 %189, label %190, label %193

190:                                              ; preds = %175
  %191 = load i32, ptr %27, align 4
  %192 = sub nsw i32 0, %191
  br label %195

193:                                              ; preds = %175
  %194 = load i32, ptr %27, align 4
  br label %195

195:                                              ; preds = %193, %190
  %196 = phi i32 [ %192, %190 ], [ %194, %193 ]
  %197 = load i32, ptr %19, align 4
  %198 = sub nsw i32 %197, %196
  store i32 %198, ptr %19, align 4
  %199 = load i32, ptr %27, align 4
  %200 = add nsw i32 %199, 1
  store i32 %200, ptr %27, align 4
  %201 = load i32, ptr %27, align 4
  %202 = load i32, ptr %20, align 4
  %203 = icmp sge i32 %201, %202
  br i1 %203, label %204, label %208

204:                                              ; preds = %195
  %205 = load i32, ptr %28, align 4
  %206 = load i32, ptr %27, align 4
  %207 = add nsw i32 %206, %205
  store i32 %207, ptr %27, align 4
  br label %208

208:                                              ; preds = %204, %195
  %209 = load i32, ptr %27, align 4
  %210 = load i32, ptr %22, align 4
  %211 = shl i32 %209, %210
  %212 = load i32, ptr %21, align 4
  %213 = add i32 %212, %211
  store i32 %213, ptr %21, align 4
  %214 = load i32, ptr %17, align 4
  %215 = load i32, ptr %22, align 4
  %216 = add nsw i32 %215, %214
  store i32 %216, ptr %22, align 4
  %217 = load i32, ptr %27, align 4
  %218 = load i32, ptr %28, align 4
  %219 = icmp slt i32 %217, %218
  %220 = zext i1 %219 to i32
  %221 = load i32, ptr %22, align 4
  %222 = sub nsw i32 %221, %220
  store i32 %222, ptr %22, align 4
  %223 = load i32, ptr %27, align 4
  %224 = icmp eq i32 %223, 1
  %225 = zext i1 %224 to i32
  store i32 %225, ptr %25, align 4
  %226 = load i32, ptr %19, align 4
  %227 = icmp slt i32 %226, 1
  br i1 %227, label %228, label %229

228:                                              ; preds = %208
  store i64 -1, ptr %7, align 8
  br label %302

229:                                              ; preds = %208
  br label %230

230:                                              ; preds = %234, %229
  %231 = load i32, ptr %19, align 4
  %232 = load i32, ptr %20, align 4
  %233 = icmp slt i32 %231, %232
  br i1 %233, label %234, label %239

234:                                              ; preds = %230
  %235 = load i32, ptr %17, align 4
  %236 = add nsw i32 %235, -1
  store i32 %236, ptr %17, align 4
  %237 = load i32, ptr %20, align 4
  %238 = ashr i32 %237, 1
  store i32 %238, ptr %20, align 4
  br label %230, !llvm.loop !19

239:                                              ; preds = %230
  %240 = load i32, ptr %22, align 4
  %241 = icmp sgt i32 %240, 16
  br i1 %241, label %242, label %267

242:                                              ; preds = %239
  %243 = load i32, ptr %13, align 4
  %244 = icmp ne i32 %243, 0
  br i1 %244, label %251, label %245

245:                                              ; preds = %242
  %246 = load ptr, ptr %15, align 8
  %247 = load ptr, ptr %16, align 8
  %248 = getelementptr inbounds i8, ptr %247, i64 -2
  %249 = icmp ugt ptr %246, %248
  br i1 %249, label %250, label %251

250:                                              ; preds = %245
  store i64 -70, ptr %7, align 8
  br label %302

251:                                              ; preds = %245, %242
  %252 = load i32, ptr %21, align 4
  %253 = trunc i32 %252 to i8
  %254 = load ptr, ptr %15, align 8
  %255 = getelementptr inbounds i8, ptr %254, i64 0
  store i8 %253, ptr %255, align 1
  %256 = load i32, ptr %21, align 4
  %257 = lshr i32 %256, 8
  %258 = trunc i32 %257 to i8
  %259 = load ptr, ptr %15, align 8
  %260 = getelementptr inbounds i8, ptr %259, i64 1
  store i8 %258, ptr %260, align 1
  %261 = load ptr, ptr %15, align 8
  %262 = getelementptr inbounds i8, ptr %261, i64 2
  store ptr %262, ptr %15, align 8
  %263 = load i32, ptr %21, align 4
  %264 = lshr i32 %263, 16
  store i32 %264, ptr %21, align 4
  %265 = load i32, ptr %22, align 4
  %266 = sub nsw i32 %265, 16
  store i32 %266, ptr %22, align 4
  br label %267

267:                                              ; preds = %251, %239
  br label %51, !llvm.loop !20

268:                                              ; preds = %86, %58
  %269 = load i32, ptr %19, align 4
  %270 = icmp ne i32 %269, 1
  br i1 %270, label %271, label %272

271:                                              ; preds = %268
  store i64 -1, ptr %7, align 8
  br label %302

272:                                              ; preds = %268
  %273 = load i32, ptr %13, align 4
  %274 = icmp ne i32 %273, 0
  br i1 %274, label %281, label %275

275:                                              ; preds = %272
  %276 = load ptr, ptr %15, align 8
  %277 = load ptr, ptr %16, align 8
  %278 = getelementptr inbounds i8, ptr %277, i64 -2
  %279 = icmp ugt ptr %276, %278
  br i1 %279, label %280, label %281

280:                                              ; preds = %275
  store i64 -70, ptr %7, align 8
  br label %302

281:                                              ; preds = %275, %272
  %282 = load i32, ptr %21, align 4
  %283 = trunc i32 %282 to i8
  %284 = load ptr, ptr %15, align 8
  %285 = getelementptr inbounds i8, ptr %284, i64 0
  store i8 %283, ptr %285, align 1
  %286 = load i32, ptr %21, align 4
  %287 = lshr i32 %286, 8
  %288 = trunc i32 %287 to i8
  %289 = load ptr, ptr %15, align 8
  %290 = getelementptr inbounds i8, ptr %289, i64 1
  store i8 %288, ptr %290, align 1
  %291 = load i32, ptr %22, align 4
  %292 = add nsw i32 %291, 7
  %293 = sdiv i32 %292, 8
  %294 = load ptr, ptr %15, align 8
  %295 = sext i32 %293 to i64
  %296 = getelementptr inbounds i8, ptr %294, i64 %295
  store ptr %296, ptr %15, align 8
  %297 = load ptr, ptr %15, align 8
  %298 = load ptr, ptr %14, align 8
  %299 = ptrtoint ptr %297 to i64
  %300 = ptrtoint ptr %298 to i64
  %301 = sub i64 %299, %300
  store i64 %301, ptr %7, align 8
  br label %302

302:                                              ; preds = %281, %280, %271, %250, %228, %157, %107
  %303 = load i64, ptr %7, align 8
  ret i64 %303
}